target datalayout = "e-m:e-p270:32:32-p271:32:32-p272:64:64-i64:64-i128:128-f80:128-n8:16:32:64-S128"
target triple = "x86_64-unknown-linux-gnu"

%class.symbol = type { ptr }
%"class.user_solver::solver" = type <{ %"class.euf::th_euf_solver.base", [4 x i8], %"class.user_propagator::callback", ptr, %"class.std::function", %"class.std::function.3", %"class.std::function.5", %"class.std::function", %"class.std::function.7", %"class.std::function.7", %"class.std::function.7", %"class.std::function.9", %"class.std::function.11", ptr, i32, [4 x i8], %class.vector.13, %class.svector.1, %class.vector.14, %class.svector.15, %class.svector.17, %class.svector.1, %"struct.user_solver::solver::stats", i32, i32, [4 x i8] }>
%"class.euf::th_euf_solver.base" = type <{ %"class.euf::th_solver", ptr, %class.ptr_vector, %class.svector.1, i32 }>
%"class.euf::th_solver" = type { %"class.sat::extension", %"class.euf::th_model_builder", %"class.euf::th_decompile", %"class.euf::th_internalizer", ptr }
%"class.sat::extension" = type { ptr, i8, i32, %class.symbol, ptr }
%"class.euf::th_model_builder" = type { ptr }
%"class.euf::th_decompile" = type { ptr }
%"class.euf::th_internalizer" = type { ptr, %class.ptr_vector, %class.svector }
%class.svector = type { %class.vector.0 }
%class.vector.0 = type { ptr }
%class.ptr_vector = type { %class.vector }
%class.vector = type { ptr }
%"class.user_propagator::callback" = type { ptr }
%"class.std::function.3" = type { %"class.std::_Function_base", ptr }
%"class.std::_Function_base" = type { %"union.std::_Any_data", ptr }
%"union.std::_Any_data" = type { %"union.std::_Nocopy_types" }
%"union.std::_Nocopy_types" = type { { i64, i64 } }
%"class.std::function.5" = type { %"class.std::_Function_base", ptr }
%"class.std::function" = type { %"class.std::_Function_base", ptr }
%"class.std::function.7" = type { %"class.std::_Function_base", ptr }
%"class.std::function.9" = type { %"class.std::_Function_base", ptr }
%"class.std::function.11" = type { %"class.std::_Function_base", ptr }
%class.vector.13 = type { ptr }
%class.vector.14 = type { ptr }
%class.svector.15 = type { %class.vector.16 }
%class.vector.16 = type { ptr }
%class.svector.17 = type { %class.vector.18 }
%class.vector.18 = type { ptr }
%class.svector.1 = type { %class.vector.2 }
%class.vector.2 = type { ptr }
%"struct.user_solver::solver::stats" = type { i32 }

; Function Attrs: mustprogress nounwind uwtable
define hidden noundef zeroext i1 @_ZN11user_solver6solver14get_case_splitERjR5lbool(ptr noundef nonnull align 8 dereferenceable(492) %this, ptr noundef nonnull align 4 dereferenceable(4) %var, ptr noundef nonnull align 4 dereferenceable(4) %phase) unnamed_addr #4 align 2 {
entry:
  %retval = alloca i1, align 1
  %this.addr = alloca ptr, align 8
  %var.addr = alloca ptr, align 8
  %phase.addr = alloca ptr, align 8
  store ptr %this, ptr %this.addr, align 8
  store ptr %var, ptr %var.addr, align 8
  store ptr %phase, ptr %phase.addr, align 8
  %this1 = load ptr, ptr %this.addr, align 8
  %m_next_split_var = getelementptr inbounds %"class.user_solver::solver", ptr %this1, i32 0, i32 23
  %0 = load i32, ptr %m_next_split_var, align 4
  %cmp = icmp eq i32 %0, 2147483647
  br i1 %cmp, label %if.then, label %if.end

if.then:                                          ; preds = %entry
  store i1 false, ptr %retval, align 1
  br label %return

if.end:                                           ; preds = %entry
  %m_next_split_var2 = getelementptr inbounds %"class.user_solver::solver", ptr %this1, i32 0, i32 23
  %1 = load i32, ptr %m_next_split_var2, align 4
  %2 = load ptr, ptr %var.addr, align 8
  store i32 %1, ptr %2, align 4
  %m_next_split_phase = getelementptr inbounds %"class.user_solver::solver", ptr %this1, i32 0, i32 24
  %3 = load i32, ptr %m_next_split_phase, align 8
  %4 = load ptr, ptr %phase.addr, align 8
  store i32 %3, ptr %4, align 4
  %m_next_split_var3 = getelementptr inbounds %"class.user_solver::solver", ptr %this1, i32 0, i32 23
  store i32 2147483647, ptr %m_next_split_var3, align 4
  %m_next_split_phase4 = getelementptr inbounds %"class.user_solver::solver", ptr %this1, i32 0, i32 24
  store i32 0, ptr %m_next_split_phase4, align 8
  store i1 true, ptr %retval, align 1
  br label %return

return:                                           ; preds = %if.end, %if.then
  %5 = load i1, ptr %retval, align 1
  ret i1 %5
}