; Function Attrs: mustprogress nofree norecurse nosync nounwind willreturn memory(argmem: readwrite) uwtable
define hidden noundef zeroext i1 @_ZN11user_solver6solver14get_case_splitERjR5lbool(ptr nocapture noundef nonnull align 8 dereferenceable(492) %this, ptr nocapture noundef nonnull writeonly align 4 dereferenceable(4) %var, ptr nocapture noundef nonnull writeonly align 4 dereferenceable(4) %phase) unnamed_addr #9 align 2 {
entry:
  %m_next_split_var = getelementptr inbounds i8, ptr %this, i64 484
  %0 = load i32, ptr %m_next_split_var, align 4
  %cmp = icmp ne i32 %0, 2147483647
  br i1 %cmp, label %if.end, label %return

if.end:                                           ; preds = %entry
  store i32 %0, ptr %var, align 4
  %m_next_split_phase = getelementptr inbounds i8, ptr %this, i64 488
  %1 = load i32, ptr %m_next_split_phase, align 8
  store i32 %1, ptr %phase, align 4
  store i32 2147483647, ptr %m_next_split_var, align 4
  store i32 0, ptr %m_next_split_phase, align 8
  br label %return

return:                                           ; preds = %entry, %if.end
  ret i1 %cmp
}